; Function Attrs: mustprogress uwtable
define void @_ZNK9pymeshlab17FunctionParameter11descriptionEv(ptr dead_on_unwind noalias nocapture writable writeonly sret(%class.QString) align 8 %0, ptr nocapture noundef nonnull readonly align 8 dereferenceable(16) %1) local_unnamed_addr #6 align 2 personality ptr @__gxx_personality_v0 {
  %3 = getelementptr inbounds i8, ptr %1, i64 8
  %4 = load ptr, ptr %3, align 8
  %.not = icmp eq ptr %4, null
  br i1 %.not, label %12, label %5

5:                                                ; preds = %2
  %6 = tail call noundef nonnull align 8 dereferenceable(8) ptr @_ZNK13RichParameter16fieldDescriptionEv(ptr noundef nonnull align 8 dereferenceable(56) %4)
  %7 = load ptr, ptr %6, align 8
  store ptr %7, ptr %0, align 8
  %8 = load atomic i32, ptr %7 monotonic, align 4
  %9 = add i32 %8, -1
  %or.cond.not.i.i = icmp ult i32 %9, -2
  br i1 %or.cond.not.i.i, label %10, label %_ZN7QStringC2ERKS_.exit

10:                                               ; preds = %5
  %11 = atomicrmw add ptr %7, i32 1 seq_cst, align 4
  br label %_ZN7QStringC2ERKS_.exit

12:                                               ; preds = %2
  store ptr @_ZN10QArrayData11shared_nullE, ptr %0, align 8
  br label %_ZN7QStringC2ERKS_.exit

_ZN7QStringC2ERKS_.exit:                          ; preds = %10, %5, %12
  ret void
}